; ModuleID = '27/794.c'
source_filename = "27/794.c"
target datalayout = "e-m:e-p270:32:32-p271:32:32-p272:64:64-i64:64-f80:128-n8:16:32:64-S128"
target triple = "x86_64-pc-linux-gnu"

@.str = private unnamed_addr constant [3 x i8] c"%d\00", align 1
@.str.1 = private unnamed_addr constant [12 x i8] c"%lf %lf %lf\00", align 1
@.str.2 = private unnamed_addr constant [8 x i8] c"x1=%.5f\00", align 1
@.str.3 = private unnamed_addr constant [2 x i8] c"+\00", align 1
@.str.4 = private unnamed_addr constant [5 x i8] c"%.5f\00", align 1
@.str.5 = private unnamed_addr constant [2 x i8] c"i\00", align 1
@.str.6 = private unnamed_addr constant [2 x i8] c";\00", align 1
@.str.7 = private unnamed_addr constant [8 x i8] c"x2=%.5f\00", align 1
@.str.8 = private unnamed_addr constant [2 x i8] c"-\00", align 1
@.str.9 = private unnamed_addr constant [2 x i8] c"\0A\00", align 1
@.str.10 = private unnamed_addr constant [11 x i8] c"x1=x2=%.5f\00", align 1

; Function Attrs: noinline nounwind uwtable
define dso_local i32 @main() #0 {
  %1 = alloca i32, align 4
  %2 = alloca double, align 8
  %3 = alloca double, align 8
  %4 = alloca double, align 8
  %5 = alloca double, align 8
  %6 = alloca double, align 8
  %7 = alloca double, align 8
  %8 = alloca double, align 8
  %9 = alloca i32, align 4
  %10 = alloca i32, align 4
  store i32 0, i32* %1, align 4
  %11 = call i32 (i8*, ...) @__isoc99_scanf(i8* getelementptr inbounds ([3 x i8], [3 x i8]* @.str, i64 0, i64 0), i32* %9)
  store i32 1, i32* %10, align 4
  br label %12

12:                                               ; preds = %97, %0
  %13 = load i32, i32* %10, align 4
  %14 = load i32, i32* %9, align 4
  %15 = icmp sle i32 %13, %14
  br i1 %15, label %16, label %100

16:                                               ; preds = %12
  %17 = call i32 (i8*, ...) @__isoc99_scanf(i8* getelementptr inbounds ([12 x i8], [12 x i8]* @.str.1, i64 0, i64 0), double* %2, double* %3, double* %4)
  %18 = load double, double* %3, align 8
  %19 = load double, double* %3, align 8
  %20 = fmul double %18, %19
  %21 = load double, double* %2, align 8
  %22 = fmul double 4.000000e+00, %21
  %23 = load double, double* %4, align 8
  %24 = fmul double %22, %23
  %25 = fsub double %20, %24
  store double %25, double* %7, align 8
  %26 = load double, double* %7, align 8
  %27 = fcmp olt double %26, 0.000000e+00
  br i1 %27, label %28, label %64

28:                                               ; preds = %16
  %29 = load double, double* %7, align 8
  %30 = fneg double %29
  store double %30, double* %7, align 8
  %31 = load double, double* %3, align 8
  %32 = fneg double %31
  %33 = load double, double* %2, align 8
  %34 = fmul double 2.000000e+00, %33
  %35 = fdiv double %32, %34
  store double %35, double* %8, align 8
  %36 = load double, double* %8, align 8
  %37 = fcmp oeq double %36, 0.000000e+00
  br i1 %37, label %38, label %41

38:                                               ; preds = %28
  %39 = load double, double* %8, align 8
  %40 = fneg double %39
  store double %40, double* %8, align 8
  br label %41

41:                                               ; preds = %38, %28
  %42 = load double, double* %8, align 8
  %43 = call i32 (i8*, ...) @printf(i8* getelementptr inbounds ([8 x i8], [8 x i8]* @.str.2, i64 0, i64 0), double %42)
  %44 = call i32 (i8*, ...) @printf(i8* getelementptr inbounds ([2 x i8], [2 x i8]* @.str.3, i64 0, i64 0))
  %45 = load double, double* %7, align 8
  %46 = call double @sqrt(double %45) #3
  %47 = load double, double* %2, align 8
  %48 = fmul double 2.000000e+00, %47
  %49 = fdiv double %46, %48
  %50 = call i32 (i8*, ...) @printf(i8* getelementptr inbounds ([5 x i8], [5 x i8]* @.str.4, i64 0, i64 0), double %49)
  %51 = call i32 (i8*, ...) @printf(i8* getelementptr inbounds ([2 x i8], [2 x i8]* @.str.5, i64 0, i64 0))
  %52 = call i32 (i8*, ...) @printf(i8* getelementptr inbounds ([2 x i8], [2 x i8]* @.str.6, i64 0, i64 0))
  %53 = load double, double* %8, align 8
  %54 = call i32 (i8*, ...) @printf(i8* getelementptr inbounds ([8 x i8], [8 x i8]* @.str.7, i64 0, i64 0), double %53)
  %55 = call i32 (i8*, ...) @printf(i8* getelementptr inbounds ([2 x i8], [2 x i8]* @.str.8, i64 0, i64 0))
  %56 = load double, double* %7, align 8
  %57 = call double @sqrt(double %56) #3
  %58 = load double, double* %2, align 8
  %59 = fmul double 2.000000e+00, %58
  %60 = fdiv double %57, %59
  %61 = call i32 (i8*, ...) @printf(i8* getelementptr inbounds ([5 x i8], [5 x i8]* @.str.4, i64 0, i64 0), double %60)
  %62 = call i32 (i8*, ...) @printf(i8* getelementptr inbounds ([2 x i8], [2 x i8]* @.str.5, i64 0, i64 0))
  %63 = call i32 (i8*, ...) @printf(i8* getelementptr inbounds ([2 x i8], [2 x i8]* @.str.9, i64 0, i64 0))
  br label %96

64:                                               ; preds = %16
  %65 = load double, double* %3, align 8
  %66 = fneg double %65
  %67 = load double, double* %7, align 8
  %68 = call double @sqrt(double %67) #3
  %69 = fadd double %66, %68
  %70 = load double, double* %2, align 8
  %71 = fmul double 2.000000e+00, %70
  %72 = fdiv double %69, %71
  store double %72, double* %5, align 8
  %73 = load double, double* %3, align 8
  %74 = fneg double %73
  %75 = load double, double* %7, align 8
  %76 = call double @sqrt(double %75) #3
  %77 = fsub double %74, %76
  %78 = load double, double* %2, align 8
  %79 = fmul double 2.000000e+00, %78
  %80 = fdiv double %77, %79
  store double %80, double* %6, align 8
  %81 = load double, double* %5, align 8
  %82 = load double, double* %6, align 8
  %83 = fcmp oeq double %81, %82
  br i1 %83, label %84, label %88

84:                                               ; preds = %64
  %85 = load double, double* %5, align 8
  %86 = call i32 (i8*, ...) @printf(i8* getelementptr inbounds ([11 x i8], [11 x i8]* @.str.10, i64 0, i64 0), double %85)
  %87 = call i32 (i8*, ...) @printf(i8* getelementptr inbounds ([2 x i8], [2 x i8]* @.str.9, i64 0, i64 0))
  br label %95

88:                                               ; preds = %64
  %89 = load double, double* %5, align 8
  %90 = call i32 (i8*, ...) @printf(i8* getelementptr inbounds ([8 x i8], [8 x i8]* @.str.2, i64 0, i64 0), double %89)
  %91 = call i32 (i8*, ...) @printf(i8* getelementptr inbounds ([2 x i8], [2 x i8]* @.str.6, i64 0, i64 0))
  %92 = load double, double* %6, align 8
  %93 = call i32 (i8*, ...) @printf(i8* getelementptr inbounds ([8 x i8], [8 x i8]* @.str.7, i64 0, i64 0), double %92)
  %94 = call i32 (i8*, ...) @printf(i8* getelementptr inbounds ([2 x i8], [2 x i8]* @.str.9, i64 0, i64 0))
  br label %95

95:                                               ; preds = %88, %84
  br label %96

96:                                               ; preds = %95, %41
  br label %97

97:                                               ; preds = %96
  %98 = load i32, i32* %10, align 4
  %99 = add nsw i32 %98, 1
  store i32 %99, i32* %10, align 4
  br label %12

100:                                              ; preds = %12
  ret i32 0
}

declare dso_local i32 @__isoc99_scanf(i8*, ...) #1

declare dso_local i32 @printf(i8*, ...) #1

; Function Attrs: nounwind
declare dso_local double @sqrt(double) #2


!llvm.module.flags = !{!0}
!llvm.ident = !{!1}

!0 = !{i32 1, !"wchar_size", i32 4}
!1 = !{!"clang version 10.0.0-4ubuntu1 "}
