; ModuleID = 'source-C-CXX/26/794.c'
source_filename = "source-C-CXX/26/794.c"
target datalayout = "e-m:e-p270:32:32-p271:32:32-p272:64:64-i64:64-f80:128-n8:16:32:64-S128"
target triple = "x86_64-pc-linux-gnu"

@.str = private unnamed_addr constant [3 x i8] c"%d\00", align 1
@.str.1 = private unnamed_addr constant [12 x i8] c"%lf %lf %lf\00", align 1
@.str.2 = private unnamed_addr constant [8 x i8] c"x1=%.5f\00", align 1
@.str.4 = private unnamed_addr constant [5 x i8] c"%.5f\00", align 1
@.str.7 = private unnamed_addr constant [8 x i8] c"x2=%.5f\00", align 1
@.str.10 = private unnamed_addr constant [11 x i8] c"x1=x2=%.5f\00", align 1

; Function Attrs: nofree nounwind sspstrong uwtable
define dso_local i32 @main() local_unnamed_addr #0 {
  %1 = alloca double, align 8
  %2 = alloca double, align 8
  %3 = alloca double, align 8
  %4 = alloca i32, align 4
  %5 = bitcast double* %1 to i8*
  call void @llvm.lifetime.start.p0i8(i64 8, i8* nonnull %5) #5
  %6 = bitcast double* %2 to i8*
  call void @llvm.lifetime.start.p0i8(i64 8, i8* nonnull %6) #5
  %7 = bitcast double* %3 to i8*
  call void @llvm.lifetime.start.p0i8(i64 8, i8* nonnull %7) #5
  %8 = bitcast i32* %4 to i8*
  call void @llvm.lifetime.start.p0i8(i64 4, i8* nonnull %8) #5
  %9 = call i32 (i8*, ...) @__isoc99_scanf(i8* getelementptr inbounds ([3 x i8], [3 x i8]* @.str, i64 0, i64 0), i32* nonnull %4)
  %10 = load i32, i32* %4, align 4, !tbaa !5
  %11 = icmp slt i32 %10, 1
  br i1 %11, label %78, label %12

12:                                               ; preds = %0, %73
  %13 = phi i32 [ %75, %73 ], [ 1, %0 ]
  %14 = call i32 (i8*, ...) @__isoc99_scanf(i8* getelementptr inbounds ([12 x i8], [12 x i8]* @.str.1, i64 0, i64 0), double* nonnull %1, double* nonnull %2, double* nonnull %3)
  %15 = load double, double* %2, align 8, !tbaa !9
  %16 = fmul double %15, %15
  %17 = load double, double* %1, align 8, !tbaa !9
  %18 = fmul double %17, 4.000000e+00
  %19 = load double, double* %3, align 8, !tbaa !9
  %20 = fmul double %18, %19
  %21 = fsub double %16, %20
  %22 = fcmp olt double %21, 0.000000e+00
  br i1 %22, label %23, label %48

23:                                               ; preds = %12
  %24 = fneg double %21
  %25 = fneg double %15
  %26 = fmul double %17, 2.000000e+00
  %27 = fdiv double %25, %26
  %28 = fcmp oeq double %27, 0.000000e+00
  %29 = fneg double %27
  %30 = select i1 %28, double %29, double %27
  %31 = call i32 (i8*, ...) @printf(i8* nonnull dereferenceable(1) getelementptr inbounds ([8 x i8], [8 x i8]* @.str.2, i64 0, i64 0), double %30)
  %32 = call i32 @putchar(i32 43)
  %33 = call double @sqrt(double %24) #5
  %34 = load double, double* %1, align 8, !tbaa !9
  %35 = fmul double %34, 2.000000e+00
  %36 = fdiv double %33, %35
  %37 = call i32 (i8*, ...) @printf(i8* nonnull dereferenceable(1) getelementptr inbounds ([5 x i8], [5 x i8]* @.str.4, i64 0, i64 0), double %36)
  %38 = call i32 @putchar(i32 105)
  %39 = call i32 @putchar(i32 59)
  %40 = call i32 (i8*, ...) @printf(i8* nonnull dereferenceable(1) getelementptr inbounds ([8 x i8], [8 x i8]* @.str.7, i64 0, i64 0), double %30)
  %41 = call i32 @putchar(i32 45)
  %42 = call double @sqrt(double %24) #5
  %43 = load double, double* %1, align 8, !tbaa !9
  %44 = fmul double %43, 2.000000e+00
  %45 = fdiv double %42, %44
  %46 = call i32 (i8*, ...) @printf(i8* nonnull dereferenceable(1) getelementptr inbounds ([5 x i8], [5 x i8]* @.str.4, i64 0, i64 0), double %45)
  %47 = call i32 @putchar(i32 105)
  br label %73

48:                                               ; preds = %12
  %49 = call double @sqrt(double %21) #5
  %50 = load double, double* %1, align 8, !tbaa !9
  %51 = load double, double* %2, align 8, !tbaa !9
  %52 = fneg double %51
  %53 = call double @sqrt(double %21) #5
  %54 = insertelement <2 x double> poison, double %49, i32 0
  %55 = insertelement <2 x double> %54, double %52, i32 1
  %56 = insertelement <2 x double> poison, double %15, i32 0
  %57 = insertelement <2 x double> %56, double %53, i32 1
  %58 = fsub <2 x double> %55, %57
  %59 = load double, double* %1, align 8, !tbaa !9
  %60 = insertelement <2 x double> poison, double %50, i32 0
  %61 = insertelement <2 x double> %60, double %59, i32 1
  %62 = fmul <2 x double> %61, <double 2.000000e+00, double 2.000000e+00>
  %63 = fdiv <2 x double> %58, %62
  %64 = extractelement <2 x double> %63, i32 0
  %65 = extractelement <2 x double> %63, i32 1
  %66 = fcmp oeq double %64, %65
  br i1 %66, label %67, label %69

67:                                               ; preds = %48
  %68 = call i32 (i8*, ...) @printf(i8* nonnull dereferenceable(1) getelementptr inbounds ([11 x i8], [11 x i8]* @.str.10, i64 0, i64 0), double %64)
  br label %73

69:                                               ; preds = %48
  %70 = call i32 (i8*, ...) @printf(i8* nonnull dereferenceable(1) getelementptr inbounds ([8 x i8], [8 x i8]* @.str.2, i64 0, i64 0), double %64)
  %71 = call i32 @putchar(i32 59)
  %72 = call i32 (i8*, ...) @printf(i8* nonnull dereferenceable(1) getelementptr inbounds ([8 x i8], [8 x i8]* @.str.7, i64 0, i64 0), double %65)
  br label %73

73:                                               ; preds = %23, %69, %67
  %74 = call i32 @putchar(i32 10)
  %75 = add nuw nsw i32 %13, 1
  %76 = load i32, i32* %4, align 4, !tbaa !5
  %77 = icmp slt i32 %13, %76
  br i1 %77, label %12, label %78, !llvm.loop !11

78:                                               ; preds = %73, %0
  call void @llvm.lifetime.end.p0i8(i64 4, i8* nonnull %8) #5
  call void @llvm.lifetime.end.p0i8(i64 8, i8* nonnull %7) #5
  call void @llvm.lifetime.end.p0i8(i64 8, i8* nonnull %6) #5
  call void @llvm.lifetime.end.p0i8(i64 8, i8* nonnull %5) #5
  ret i32 0
}

; Function Attrs: argmemonly mustprogress nofree nosync nounwind willreturn
declare void @llvm.lifetime.start.p0i8(i64 immarg, i8* nocapture) #1

; Function Attrs: nofree nounwind
declare noundef i32 @__isoc99_scanf(i8* nocapture noundef readonly, ...) local_unnamed_addr #2

; Function Attrs: nofree nounwind
declare noundef i32 @printf(i8* nocapture noundef readonly, ...) local_unnamed_addr #2

; Function Attrs: mustprogress nofree nounwind willreturn
declare double @sqrt(double) local_unnamed_addr #3

; Function Attrs: argmemonly mustprogress nofree nosync nounwind willreturn
declare void @llvm.lifetime.end.p0i8(i64 immarg, i8* nocapture) #1

; Function Attrs: nofree nounwind
declare noundef i32 @putchar(i32 noundef) local_unnamed_addr #4


!llvm.module.flags = !{!0, !1, !2, !3}
!llvm.ident = !{!4}

!0 = !{i32 1, !"wchar_size", i32 4}
!1 = !{i32 7, !"PIC Level", i32 2}
!2 = !{i32 7, !"PIE Level", i32 2}
!3 = !{i32 7, !"uwtable", i32 1}
!4 = !{!"clang version 13.0.0"}
!5 = !{!6, !6, i64 0}
!6 = !{!"int", !7, i64 0}
!7 = !{!"omnipotent char", !8, i64 0}
!8 = !{!"Simple C/C++ TBAA"}
!9 = !{!10, !10, i64 0}
!10 = !{!"double", !7, i64 0}
!11 = distinct !{!11, !12}
!12 = !{!"llvm.loop.mustprogress"}
